target datalayout = "e-m:e-p270:32:32-p271:32:32-p272:64:64-i64:64-i128:128-f80:128-n8:16:32:64-S128"
target triple = "x86_64-pc-linux-gnu"

%struct.ID3v2EMFunc = type { ptr, ptr, ptr, ptr }
%struct.ID3v2ExtraMeta = type { ptr, ptr, %union.anon }
%union.anon = type { %struct.ID3v2ExtraMetaGEOB }
%struct.ID3v2ExtraMetaGEOB = type { i32, ptr, ptr, ptr, ptr }

; Function Attrs: nounwind uwtable
define internal ptr @get_extra_meta_func(ptr noundef %0, i32 noundef %1) #0 {
  %3 = alloca ptr, align 8
  %4 = alloca ptr, align 8
  %5 = alloca i32, align 4
  %6 = alloca i32, align 4
  %7 = alloca i32, align 4
  store ptr %0, ptr %4, align 8, !tbaa !4
  store i32 %1, ptr %5, align 4, !tbaa !10
  call void @llvm.lifetime.start.p0(i64 4, ptr %6) #10
  store i32 0, ptr %6, align 4, !tbaa !10
  br label %8

8:                                                ; preds = %46, %2
  %9 = load i32, ptr %6, align 4, !tbaa !10
  %10 = sext i32 %9 to i64
  %11 = getelementptr inbounds [5 x %struct.ID3v2EMFunc], ptr @id3v2_extra_meta_funcs, i64 0, i64 %10
  %12 = getelementptr inbounds nuw %struct.ID3v2EMFunc, ptr %11, i32 0, i32 0
  %13 = load ptr, ptr %12, align 16, !tbaa !49
  %14 = icmp ne ptr %13, null
  br i1 %14, label %15, label %49

15:                                               ; preds = %8
  %16 = load ptr, ptr %4, align 8, !tbaa !4
  %17 = icmp ne ptr %16, null
  br i1 %17, label %18, label %46

18:                                               ; preds = %15
  %19 = load ptr, ptr %4, align 8, !tbaa !4
  %20 = load i32, ptr %5, align 4, !tbaa !10
  %21 = icmp ne i32 %20, 0
  br i1 %21, label %22, label %28

22:                                               ; preds = %18
  %23 = load i32, ptr %6, align 4, !tbaa !10
  %24 = sext i32 %23 to i64
  %25 = getelementptr inbounds [5 x %struct.ID3v2EMFunc], ptr @id3v2_extra_meta_funcs, i64 0, i64 %24
  %26 = getelementptr inbounds nuw %struct.ID3v2EMFunc, ptr %25, i32 0, i32 1
  %27 = load ptr, ptr %26, align 8, !tbaa !50
  br label %34

28:                                               ; preds = %18
  %29 = load i32, ptr %6, align 4, !tbaa !10
  %30 = sext i32 %29 to i64
  %31 = getelementptr inbounds [5 x %struct.ID3v2EMFunc], ptr @id3v2_extra_meta_funcs, i64 0, i64 %30
  %32 = getelementptr inbounds nuw %struct.ID3v2EMFunc, ptr %31, i32 0, i32 0
  %33 = load ptr, ptr %32, align 16, !tbaa !49
  br label %34

34:                                               ; preds = %28, %22
  %35 = phi ptr [ %27, %22 ], [ %33, %28 ]
  %36 = load i32, ptr %5, align 4, !tbaa !10
  %37 = icmp ne i32 %36, 0
  %38 = select i1 %37, i32 4, i32 3
  %39 = sext i32 %38 to i64
  %40 = call i32 @memcmp(ptr noundef %19, ptr noundef %35, i64 noundef %39) #11
  %41 = icmp ne i32 %40, 0
  br i1 %41, label %46, label %42

42:                                               ; preds = %34
  %43 = load i32, ptr %6, align 4, !tbaa !10
  %44 = sext i32 %43 to i64
  %45 = getelementptr inbounds [5 x %struct.ID3v2EMFunc], ptr @id3v2_extra_meta_funcs, i64 0, i64 %44
  store ptr %45, ptr %3, align 8
  store i32 1, ptr %7, align 4
  br label %50

46:                                               ; preds = %34, %15
  %47 = load i32, ptr %6, align 4, !tbaa !10
  %48 = add nsw i32 %47, 1
  store i32 %48, ptr %6, align 4, !tbaa !10
  br label %8, !llvm.loop !51

49:                                               ; preds = %8
  store ptr null, ptr %3, align 8
  store i32 1, ptr %7, align 4
  br label %50

50:                                               ; preds = %49, %42
  call void @llvm.lifetime.end.p0(i64 4, ptr %6) #10
  %51 = load ptr, ptr %3, align 8
  ret ptr %51
}

; Function Attrs: nounwind uwtable
define void @ff_id3v2_free_extra_meta(ptr noundef %0) #0 {
  %2 = alloca ptr, align 8
  %3 = alloca ptr, align 8
  %4 = alloca ptr, align 8
  %5 = alloca ptr, align 8
  store ptr %0, ptr %2, align 8, !tbaa !17
  call void @llvm.lifetime.start.p0(i64 8, ptr %3) #10
  %6 = load ptr, ptr %2, align 8, !tbaa !17
  %7 = load ptr, ptr %6, align 8, !tbaa !23
  store ptr %7, ptr %3, align 8, !tbaa !23
  call void @llvm.lifetime.start.p0(i64 8, ptr %4) #10
  call void @llvm.lifetime.start.p0(i64 8, ptr %5) #10
  br label %8

8:                                                ; preds = %23, %1
  %9 = load ptr, ptr %3, align 8, !tbaa !23
  %10 = icmp ne ptr %9, null
  br i1 %10, label %11, label %28

11:                                               ; preds = %8
  %12 = load ptr, ptr %3, align 8, !tbaa !23
  %13 = getelementptr inbounds nuw %struct.ID3v2ExtraMeta, ptr %12, i32 0, i32 0
  %14 = load ptr, ptr %13, align 8, !tbaa !41
  %15 = call ptr @get_extra_meta_func(ptr noundef %14, i32 noundef 1)
  store ptr %15, ptr %5, align 8, !tbaa !43
  %16 = icmp ne ptr %15, null
  br i1 %16, label %17, label %23

17:                                               ; preds = %11
  %18 = load ptr, ptr %5, align 8, !tbaa !43
  %19 = getelementptr inbounds nuw %struct.ID3v2EMFunc, ptr %18, i32 0, i32 3
  %20 = load ptr, ptr %19, align 8, !tbaa !45
  %21 = load ptr, ptr %3, align 8, !tbaa !23
  %22 = getelementptr inbounds nuw %struct.ID3v2ExtraMeta, ptr %21, i32 0, i32 2
  call void %20(ptr noundef %22)
  br label %23

23:                                               ; preds = %17, %11
  %24 = load ptr, ptr %3, align 8, !tbaa !23
  %25 = getelementptr inbounds nuw %struct.ID3v2ExtraMeta, ptr %24, i32 0, i32 1
  %26 = load ptr, ptr %25, align 8, !tbaa !47
  store ptr %26, ptr %4, align 8, !tbaa !23
  call void @av_freep(ptr noundef %3)
  %27 = load ptr, ptr %4, align 8, !tbaa !23
  store ptr %27, ptr %3, align 8, !tbaa !23
  br label %8, !llvm.loop !48

28:                                               ; preds = %8
  %29 = load ptr, ptr %2, align 8, !tbaa !17
  store ptr null, ptr %29, align 8, !tbaa !23
  call void @llvm.lifetime.end.p0(i64 8, ptr %5) #10
  call void @llvm.lifetime.end.p0(i64 8, ptr %4) #10
  call void @llvm.lifetime.end.p0(i64 8, ptr %3) #10
  ret void
}