; Function Attrs: nounwind uwtable
define void @ff_id3v2_free_extra_meta(ptr noundef captures(none) %0) local_unnamed_addr #2 {
  %2 = alloca ptr, align 8
  call void @llvm.lifetime.start.p0(i64 8, ptr nonnull %2) #9
  %3 = load ptr, ptr %0, align 8, !tbaa !7
  store ptr %3, ptr %2, align 8, !tbaa !7
  %.not9 = icmp eq ptr %3, null
  br i1 %.not9, label %._crit_edge, label %.lr.ph

.lr.ph:                                           ; preds = %1, %get_extra_meta_func.exit.thread
  %storemerge10 = phi ptr [ %15, %get_extra_meta_func.exit.thread ], [ %3, %1 ]
  %4 = load ptr, ptr %storemerge10, align 8, !tbaa !47
  %.not12.i = icmp eq ptr %4, null
  br i1 %.not12.i, label %get_extra_meta_func.exit.thread, label %.split.split.i

.split.split.i:                                   ; preds = %.lr.ph, %8
  %indvars.iv.i = phi i64 [ %indvars.iv.next.i, %8 ], [ 0, %.lr.ph ]
  %5 = phi ptr [ %9, %8 ], [ @id3v2_extra_meta_funcs, %.lr.ph ]
  %6 = getelementptr inbounds nuw i8, ptr %5, i64 8
  %7 = load ptr, ptr %6, align 8, !tbaa !23
  %bcmp.i = call i32 @bcmp(ptr noundef nonnull readonly dereferenceable(4) %4, ptr noundef nonnull dereferenceable(4) %7, i64 4)
  %.not14.i = icmp eq i32 %bcmp.i, 0
  br i1 %.not14.i, label %get_extra_meta_func.exit, label %8

8:                                                ; preds = %.split.split.i
  %indvars.iv.next.i = add nuw nsw i64 %indvars.iv.i, 1
  %9 = getelementptr inbounds nuw [5 x %struct.ID3v2EMFunc], ptr @id3v2_extra_meta_funcs, i64 0, i64 %indvars.iv.next.i
  %exitcond.i = icmp eq i64 %indvars.iv.next.i, 4
  br i1 %exitcond.i, label %get_extra_meta_func.exit.thread, label %.split.split.i, !llvm.loop !22

get_extra_meta_func.exit:                         ; preds = %.split.split.i
  %10 = getelementptr inbounds nuw i8, ptr %5, i64 24
  %11 = load ptr, ptr %10, align 8, !tbaa !49
  %12 = getelementptr inbounds nuw i8, ptr %storemerge10, i64 16
  call void %11(ptr noundef nonnull %12) #9
  %.pre = load ptr, ptr %2, align 8, !tbaa !7
  br label %get_extra_meta_func.exit.thread

get_extra_meta_func.exit.thread:                  ; preds = %8, %.lr.ph, %get_extra_meta_func.exit
  %13 = phi ptr [ %storemerge10, %.lr.ph ], [ %.pre, %get_extra_meta_func.exit ], [ %storemerge10, %8 ]
  %14 = getelementptr inbounds nuw i8, ptr %13, i64 8
  %15 = load ptr, ptr %14, align 8, !tbaa !50
  call void @av_freep(ptr noundef nonnull %2) #9
  store ptr %15, ptr %2, align 8, !tbaa !7
  %.not = icmp eq ptr %15, null
  br i1 %.not, label %._crit_edge, label %.lr.ph, !llvm.loop !51

._crit_edge:                                      ; preds = %get_extra_meta_func.exit.thread, %1
  store ptr null, ptr %0, align 8, !tbaa !7
  call void @llvm.lifetime.end.p0(i64 8, ptr nonnull %2) #9
  ret void
}